; Function Attrs: null_pointer_is_valid sspstrong uwtable
define internal void @bssgp_paging_ps_reject(ptr noundef %0, ptr noundef %1, ptr noundef initializes((384, 388)) %2, i32 noundef %3, i32 noundef %4) #1 {
  %6 = getelementptr inbounds nuw i8, ptr %2, i64 384
  store i32 0, ptr %6, align 8
  %7 = icmp sgt i32 %4, 0
  br i1 %7, label %8, label %14

8:                                                ; preds = %5
  %9 = tail call zeroext i16 @elem_telv(ptr noundef %0, ptr noundef %1, ptr noundef %2, i8 noundef zeroext 13, i32 noundef 13, i32 noundef 13, i32 noundef %3, i32 noundef %4, ptr noundef null)
  %.not = icmp eq i16 %9, 0
  br i1 %.not, label %14, label %10

10:                                               ; preds = %8
  %11 = zext i16 %9 to i32
  %12 = add i32 %3, %11
  %13 = sub nsw i32 %4, %11
  br label %17

14:                                               ; preds = %8, %5
  %15 = tail call ptr @get_gsm_a_msg_string(i32 noundef 13, i32 noundef 13)
  %16 = tail call ptr (ptr, ptr, ptr, ptr, i32, i32, ptr, ...) @proto_tree_add_expert_format(ptr noundef %1, ptr noundef %2, ptr noundef nonnull @ei_bssgp_missing_mandatory_element, ptr noundef %0, i32 noundef %3, i32 noundef 0, ptr noundef nonnull @.str.6, i32 noundef 13, ptr noundef %15, ptr noundef nonnull @.str.7)
  br label %17

17:                                               ; preds = %14, %10
  %.048 = phi i32 [ %12, %10 ], [ %3, %14 ]
  %.0 = phi i32 [ %13, %10 ], [ %4, %14 ]
  %18 = icmp slt i32 %.0, 1
  br i1 %18, label %37, label %19

19:                                               ; preds = %17
  %20 = tail call zeroext i16 @elem_telv(ptr noundef %0, ptr noundef %1, ptr noundef %2, i8 noundef zeroext 32, i32 noundef 3, i32 noundef 69, i32 noundef %.048, i32 noundef %.0, ptr noundef null)
  %21 = zext i16 %20 to i32
  %22 = add i32 %.048, %21
  %23 = sub nsw i32 %.0, %21
  %24 = icmp sgt i32 %23, 0
  br i1 %24, label %25, label %31

25:                                               ; preds = %19
  %26 = tail call zeroext i16 @elem_telv(ptr noundef %0, ptr noundef %1, ptr noundef %2, i8 noundef zeroext -109, i32 noundef 13, i32 noundef 108, i32 noundef %22, i32 noundef %23, ptr noundef null)
  %.not56 = icmp eq i16 %26, 0
  br i1 %.not56, label %31, label %27

27:                                               ; preds = %25
  %28 = zext i16 %26 to i32
  %29 = add i32 %22, %28
  %30 = sub nsw i32 %23, %28
  br label %34

31:                                               ; preds = %25, %19
  %32 = tail call ptr @get_gsm_a_msg_string(i32 noundef 13, i32 noundef 108)
  %33 = tail call ptr (ptr, ptr, ptr, ptr, i32, i32, ptr, ...) @proto_tree_add_expert_format(ptr noundef %1, ptr noundef %2, ptr noundef nonnull @ei_bssgp_missing_mandatory_element, ptr noundef %0, i32 noundef %22, i32 noundef 0, ptr noundef nonnull @.str.6, i32 noundef 147, ptr noundef %32, ptr noundef nonnull @.str.7)
  br label %34

34:                                               ; preds = %31, %27
  %.250 = phi i32 [ %29, %27 ], [ %22, %31 ]
  %.2 = phi i32 [ %30, %27 ], [ %23, %31 ]
  %.not57 = icmp eq i32 %.2, 0
  br i1 %.not57, label %37, label %35

35:                                               ; preds = %34
  %36 = tail call ptr @proto_tree_add_expert(ptr noundef %1, ptr noundef %2, ptr noundef nonnull @ei_bssgp_extraneous_data, ptr noundef %0, i32 noundef %.250, i32 noundef %.2)
  br label %37

37:                                               ; preds = %34, %35, %17
  ret void
}